target datalayout = "e-m:e-p270:32:32-p271:32:32-p272:64:64-i64:64-i128:128-f80:128-n8:16:32:64-S128"
target triple = "x86_64-pc-linux-gnu"

%struct.AVFilterContext = type { ptr, ptr, ptr, ptr, ptr, i32, ptr, ptr, i32, ptr, ptr, i32, i32, ptr, ptr, ptr, ptr, i32, ptr, i32, i32 }
%struct.GradFunContext = type { ptr, float, i32, i32, i32, i32, i32, ptr, ptr, ptr }
%struct.AVFilterLink = type { ptr, ptr, ptr, ptr, i32, i32, i32, i32, %struct.AVRational, i32, i32, i32, %struct.AVChannelLayout, %struct.AVRational, ptr, i32, %struct.AVFilterFormatsConfig, %struct.AVFilterFormatsConfig }
%struct.AVChannelLayout = type { i32, i32, %union.anon.1, ptr }
%union.anon.1 = type { i64 }
%struct.AVRational = type { i32, i32 }
%struct.AVFilterFormatsConfig = type { ptr, ptr, ptr, ptr, ptr }
%struct.AVPixFmtDescriptor = type { ptr, i8, i8, i8, i64, [4 x %struct.AVComponentDescriptor], ptr }
%struct.AVComponentDescriptor = type { i32, i32, i32, i32, i32 }

; Function Attrs: alwaysinline nounwind willreturn memory(none) uwtable
define internal i32 @av_clip_c(i32 noundef %0, i32 noundef %1, i32 noundef %2) #3 {
  %4 = alloca i32, align 4
  %5 = alloca i32, align 4
  %6 = alloca i32, align 4
  %7 = alloca i32, align 4
  store i32 %0, ptr %5, align 4, !tbaa !11
  store i32 %1, ptr %6, align 4, !tbaa !11
  store i32 %2, ptr %7, align 4, !tbaa !11
  %8 = load i32, ptr %5, align 4, !tbaa !11
  %9 = load i32, ptr %6, align 4, !tbaa !11
  %10 = icmp slt i32 %8, %9
  br i1 %10, label %11, label %13

11:                                               ; preds = %3
  %12 = load i32, ptr %6, align 4, !tbaa !11
  store i32 %12, ptr %4, align 4
  br label %21

13:                                               ; preds = %3
  %14 = load i32, ptr %5, align 4, !tbaa !11
  %15 = load i32, ptr %7, align 4, !tbaa !11
  %16 = icmp sgt i32 %14, %15
  br i1 %16, label %17, label %19

17:                                               ; preds = %13
  %18 = load i32, ptr %7, align 4, !tbaa !11
  store i32 %18, ptr %4, align 4
  br label %21

19:                                               ; preds = %13
  %20 = load i32, ptr %5, align 4, !tbaa !11
  store i32 %20, ptr %4, align 4
  br label %21

21:                                               ; preds = %19, %17, %11
  %22 = load i32, ptr %4, align 4
  ret i32 %22
}

; Function Attrs: nounwind uwtable
define internal i32 @config_input(ptr noundef %0) #0 {
  %2 = alloca i32, align 4
  %3 = alloca ptr, align 8
  %4 = alloca ptr, align 8
  %5 = alloca ptr, align 8
  %6 = alloca i32, align 4
  %7 = alloca i32, align 4
  %8 = alloca i32, align 4
  store ptr %0, ptr %3, align 8, !tbaa !41
  call void @llvm.lifetime.start.p0(i64 8, ptr %4) #8
  %9 = load ptr, ptr %3, align 8, !tbaa !41
  %10 = getelementptr inbounds nuw %struct.AVFilterLink, ptr %9, i32 0, i32 2
  %11 = load ptr, ptr %10, align 8, !tbaa !45
  %12 = getelementptr inbounds nuw %struct.AVFilterContext, ptr %11, i32 0, i32 9
  %13 = load ptr, ptr %12, align 8, !tbaa !21
  store ptr %13, ptr %4, align 8, !tbaa !32
  call void @llvm.lifetime.start.p0(i64 8, ptr %5) #8
  %14 = load ptr, ptr %3, align 8, !tbaa !41
  %15 = getelementptr inbounds nuw %struct.AVFilterLink, ptr %14, i32 0, i32 5
  %16 = load i32, ptr %15, align 4, !tbaa !60
  %17 = call ptr @av_pix_fmt_desc_get(i32 noundef %16)
  store ptr %17, ptr %5, align 8, !tbaa !61
  call void @llvm.lifetime.start.p0(i64 4, ptr %6) #8
  %18 = load ptr, ptr %5, align 8, !tbaa !61
  %19 = getelementptr inbounds nuw %struct.AVPixFmtDescriptor, ptr %18, i32 0, i32 2
  %20 = load i8, ptr %19, align 1, !tbaa !63
  %21 = zext i8 %20 to i32
  store i32 %21, ptr %6, align 4, !tbaa !11
  call void @llvm.lifetime.start.p0(i64 4, ptr %7) #8
  %22 = load ptr, ptr %5, align 8, !tbaa !61
  %23 = getelementptr inbounds nuw %struct.AVPixFmtDescriptor, ptr %22, i32 0, i32 3
  %24 = load i8, ptr %23, align 2, !tbaa !66
  %25 = zext i8 %24 to i32
  store i32 %25, ptr %7, align 4, !tbaa !11
  %26 = load ptr, ptr %4, align 8, !tbaa !32
  %27 = getelementptr inbounds nuw %struct.GradFunContext, ptr %26, i32 0, i32 7
  call void @av_freep(ptr noundef %27)
  %28 = load ptr, ptr %3, align 8, !tbaa !41
  %29 = getelementptr inbounds nuw %struct.AVFilterLink, ptr %28, i32 0, i32 6
  %30 = load i32, ptr %29, align 8, !tbaa !54
  %31 = add nsw i32 %30, 16
  %32 = sub nsw i32 %31, 1
  %33 = and i32 %32, -16
  %34 = load ptr, ptr %4, align 8, !tbaa !32
  %35 = getelementptr inbounds nuw %struct.GradFunContext, ptr %34, i32 0, i32 3
  %36 = load i32, ptr %35, align 8, !tbaa !38
  %37 = add nsw i32 %36, 1
  %38 = mul nsw i32 %33, %37
  %39 = sdiv i32 %38, 2
  %40 = add nsw i32 %39, 32
  %41 = sext i32 %40 to i64
  %42 = call noalias ptr @av_calloc(i64 noundef %41, i64 noundef 2)
  %43 = load ptr, ptr %4, align 8, !tbaa !32
  %44 = getelementptr inbounds nuw %struct.GradFunContext, ptr %43, i32 0, i32 7
  store ptr %42, ptr %44, align 8, !tbaa !67
  %45 = load ptr, ptr %4, align 8, !tbaa !32
  %46 = getelementptr inbounds nuw %struct.GradFunContext, ptr %45, i32 0, i32 7
  %47 = load ptr, ptr %46, align 8, !tbaa !67
  %48 = icmp ne ptr %47, null
  br i1 %48, label %50, label %49

49:                                               ; preds = %1
  store i32 -12, ptr %2, align 4
  store i32 1, ptr %8, align 4
  br label %116

50:                                               ; preds = %1
  %51 = load i32, ptr %6, align 4, !tbaa !11
  %52 = call i1 @llvm.is.constant.i32(i32 %51)
  br i1 %52, label %61, label %53

53:                                               ; preds = %50
  %54 = load ptr, ptr %3, align 8, !tbaa !41
  %55 = getelementptr inbounds nuw %struct.AVFilterLink, ptr %54, i32 0, i32 6
  %56 = load i32, ptr %55, align 8, !tbaa !54
  %57 = sub nsw i32 0, %56
  %58 = load i32, ptr %6, align 4, !tbaa !11
  %59 = ashr i32 %57, %58
  %60 = sub nsw i32 0, %59
  br label %71

61:                                               ; preds = %50
  %62 = load ptr, ptr %3, align 8, !tbaa !41
  %63 = getelementptr inbounds nuw %struct.AVFilterLink, ptr %62, i32 0, i32 6
  %64 = load i32, ptr %63, align 8, !tbaa !54
  %65 = load i32, ptr %6, align 4, !tbaa !11
  %66 = shl i32 1, %65
  %67 = add nsw i32 %64, %66
  %68 = sub nsw i32 %67, 1
  %69 = load i32, ptr %6, align 4, !tbaa !11
  %70 = ashr i32 %68, %69
  br label %71

71:                                               ; preds = %61, %53
  %72 = phi i32 [ %60, %53 ], [ %70, %61 ]
  %73 = load ptr, ptr %4, align 8, !tbaa !32
  %74 = getelementptr inbounds nuw %struct.GradFunContext, ptr %73, i32 0, i32 4
  store i32 %72, ptr %74, align 4, !tbaa !56
  %75 = load i32, ptr %7, align 4, !tbaa !11
  %76 = call i1 @llvm.is.constant.i32(i32 %75)
  br i1 %76, label %85, label %77

77:                                               ; preds = %71
  %78 = load ptr, ptr %3, align 8, !tbaa !41
  %79 = getelementptr inbounds nuw %struct.AVFilterLink, ptr %78, i32 0, i32 7
  %80 = load i32, ptr %79, align 4, !tbaa !55
  %81 = sub nsw i32 0, %80
  %82 = load i32, ptr %7, align 4, !tbaa !11
  %83 = ashr i32 %81, %82
  %84 = sub nsw i32 0, %83
  br label %95

85:                                               ; preds = %71
  %86 = load ptr, ptr %3, align 8, !tbaa !41
  %87 = getelementptr inbounds nuw %struct.AVFilterLink, ptr %86, i32 0, i32 7
  %88 = load i32, ptr %87, align 4, !tbaa !55
  %89 = load i32, ptr %7, align 4, !tbaa !11
  %90 = shl i32 1, %89
  %91 = add nsw i32 %88, %90
  %92 = sub nsw i32 %91, 1
  %93 = load i32, ptr %7, align 4, !tbaa !11
  %94 = ashr i32 %92, %93
  br label %95

95:                                               ; preds = %85, %77
  %96 = phi i32 [ %84, %77 ], [ %94, %85 ]
  %97 = load ptr, ptr %4, align 8, !tbaa !32
  %98 = getelementptr inbounds nuw %struct.GradFunContext, ptr %97, i32 0, i32 5
  store i32 %96, ptr %98, align 8, !tbaa !57
  %99 = load ptr, ptr %4, align 8, !tbaa !32
  %100 = getelementptr inbounds nuw %struct.GradFunContext, ptr %99, i32 0, i32 3
  %101 = load i32, ptr %100, align 8, !tbaa !38
  %102 = load i32, ptr %6, align 4, !tbaa !11
  %103 = ashr i32 %101, %102
  %104 = load ptr, ptr %4, align 8, !tbaa !32
  %105 = getelementptr inbounds nuw %struct.GradFunContext, ptr %104, i32 0, i32 3
  %106 = load i32, ptr %105, align 8, !tbaa !38
  %107 = load i32, ptr %7, align 4, !tbaa !11
  %108 = ashr i32 %106, %107
  %109 = add nsw i32 %103, %108
  %110 = sdiv i32 %109, 2
  %111 = add nsw i32 %110, 1
  %112 = and i32 %111, -2
  %113 = call i32 @av_clip_c(i32 noundef %112, i32 noundef 4, i32 noundef 32) #9
  %114 = load ptr, ptr %4, align 8, !tbaa !32
  %115 = getelementptr inbounds nuw %struct.GradFunContext, ptr %114, i32 0, i32 6
  store i32 %113, ptr %115, align 4, !tbaa !58
  store i32 0, ptr %2, align 4
  store i32 1, ptr %8, align 4
  br label %116

116:                                              ; preds = %95, %49
  call void @llvm.lifetime.end.p0(i64 4, ptr %7) #8
  call void @llvm.lifetime.end.p0(i64 4, ptr %6) #8
  call void @llvm.lifetime.end.p0(i64 8, ptr %5) #8
  call void @llvm.lifetime.end.p0(i64 8, ptr %4) #8
  %117 = load i32, ptr %2, align 4
  ret i32 %117
}