; Function Attrs: nounwind uwtable
define internal range(i32 -12, 1) i32 @config_input(ptr noundef readonly captures(none) %0) #3 {
  %2 = getelementptr inbounds nuw i8, ptr %0, i64 16
  %3 = load ptr, ptr %2, align 8, !tbaa !36
  %4 = getelementptr inbounds nuw i8, ptr %3, i64 72
  %5 = load ptr, ptr %4, align 8, !tbaa !12
  %6 = getelementptr inbounds nuw i8, ptr %0, i64 36
  %7 = load i32, ptr %6, align 4, !tbaa !60
  %8 = tail call ptr @av_pix_fmt_desc_get(i32 noundef %7) #7
  %9 = getelementptr inbounds nuw i8, ptr %8, i64 9
  %10 = load i8, ptr %9, align 1, !tbaa !61
  %11 = getelementptr inbounds nuw i8, ptr %8, i64 10
  %12 = load i8, ptr %11, align 2, !tbaa !64
  %13 = getelementptr inbounds nuw i8, ptr %5, i64 32
  tail call void @av_freep(ptr noundef nonnull %13) #7
  %14 = getelementptr inbounds nuw i8, ptr %0, i64 40
  %15 = load i32, ptr %14, align 8, !tbaa !48
  %16 = add nsw i32 %15, 15
  %17 = and i32 %16, -16
  %18 = getelementptr inbounds nuw i8, ptr %5, i64 16
  %19 = load i32, ptr %18, align 8, !tbaa !31
  %20 = add nsw i32 %19, 1
  %21 = mul nsw i32 %17, %20
  %22 = ashr exact i32 %21, 1
  %23 = add nsw i32 %22, 32
  %24 = sext i32 %23 to i64
  %25 = tail call noalias ptr @av_calloc(i64 noundef %24, i64 noundef 2) #7
  store ptr %25, ptr %13, align 8, !tbaa !52
  %.not = icmp eq ptr %25, null
  br i1 %.not, label %50, label %26

26:                                               ; preds = %1
  %27 = zext i8 %12 to i32
  %28 = zext i8 %10 to i32
  %29 = load i32, ptr %14, align 8, !tbaa !48
  %30 = sub nsw i32 0, %29
  %31 = ashr i32 %30, %28
  %32 = sub nsw i32 0, %31
  %33 = getelementptr inbounds nuw i8, ptr %5, i64 20
  store i32 %32, ptr %33, align 4, !tbaa !65
  %34 = getelementptr inbounds nuw i8, ptr %0, i64 44
  %35 = load i32, ptr %34, align 4, !tbaa !49
  %36 = sub nsw i32 0, %35
  %37 = ashr i32 %36, %27
  %38 = sub nsw i32 0, %37
  %39 = getelementptr inbounds nuw i8, ptr %5, i64 24
  store i32 %38, ptr %39, align 8, !tbaa !66
  %40 = load i32, ptr %18, align 8, !tbaa !31
  %41 = ashr i32 %40, %28
  %42 = ashr i32 %40, %27
  %43 = add nsw i32 %41, %42
  %44 = sdiv i32 %43, 2
  %45 = add nsw i32 %44, 1
  %46 = and i32 %45, -2
  %47 = tail call i32 @llvm.smax.i32(i32 %46, i32 4)
  %48 = tail call i32 @llvm.umin.i32(i32 %47, i32 32)
  %49 = getelementptr inbounds nuw i8, ptr %5, i64 28
  store i32 %48, ptr %49, align 4, !tbaa !67
  br label %50

50:                                               ; preds = %1, %26
  %.0 = phi i32 [ 0, %26 ], [ -12, %1 ]
  ret i32 %.0
}